target datalayout = "e-m:e-p270:32:32-p271:32:32-p272:64:64-i64:64-i128:128-f80:128-n8:16:32:64-S128"
target triple = "x86_64-pc-linux-gnu"

%struct._packet_info = type { ptr, ptr, i32, i32, %struct.nstime_t, %struct.nstime_t, %struct.nstime_t, i8, ptr, ptr, ptr, ptr, %struct._address, %struct._address, %struct._address, %struct._address, %struct._address, %struct._address, i32, ptr, i8, [3 x i8], %struct.anon, i32, i32, i32, i32, ptr, i8, ptr, ptr, i16, i16, i32, i32, i16, i32, i32, ptr, ptr, ptr, i8, i8, i16, i16, i16, i32, i16, i16, ptr, ptr, ptr, ptr, ptr, i32, i32 }
%struct.nstime_t = type { i64, i32 }
%struct._address = type { i32, i32, ptr, ptr }
%struct.anon = type { i8, [3 x i8] }

@hf_kafka_topic_name = internal global i32 0, align 4
@.str.558 = private unnamed_addr constant [6 x i8] c"Topic\00", align 1
@ett_kafka_topic = internal global i32 0, align 4
@ett_kafka_partitions = internal global i32 0, align 4
@.str.671 = private unnamed_addr constant [11 x i8] c"Partitions\00", align 1
@.str.687 = private unnamed_addr constant [12 x i8] c" (Topic=%s)\00", align 1

; Function Attrs: null_pointer_is_valid sspstrong uwtable
define internal i32 @dissect_kafka_stop_replica_request_topic(ptr noundef %0, ptr noundef %1, ptr noundef %2, i32 noundef %3, i16 noundef signext %4) #0 {
  %6 = alloca ptr, align 8
  %7 = alloca ptr, align 8
  %8 = alloca ptr, align 8
  %9 = alloca i32, align 4
  %10 = alloca i16, align 2
  %11 = alloca ptr, align 8
  %12 = alloca ptr, align 8
  %13 = alloca ptr, align 8
  %14 = alloca ptr, align 8
  %15 = alloca i32, align 4
  %16 = alloca i32, align 4
  store ptr %0, ptr %6, align 8
  store ptr %1, ptr %7, align 8
  store ptr %2, ptr %8, align 8
  store i32 %3, ptr %9, align 4
  store i16 %4, ptr %10, align 2
  call void @llvm.lifetime.start.p0(i64 8, ptr %11) #12
  call void @llvm.lifetime.start.p0(i64 8, ptr %12) #12
  call void @llvm.lifetime.start.p0(i64 8, ptr %13) #12
  call void @llvm.lifetime.start.p0(i64 8, ptr %14) #12
  call void @llvm.lifetime.start.p0(i64 4, ptr %15) #12
  call void @llvm.lifetime.start.p0(i64 4, ptr %16) #12
  %17 = load ptr, ptr %8, align 8
  %18 = load ptr, ptr %6, align 8
  %19 = load i32, ptr %9, align 4
  %20 = load i32, ptr @ett_kafka_topic, align 4
  %21 = call ptr @proto_tree_add_subtree(ptr noundef %17, ptr noundef %18, i32 noundef %19, i32 noundef -1, i32 noundef %20, ptr noundef %11, ptr noundef @.str.558)
  store ptr %21, ptr %13, align 8
  %22 = load i16, ptr %10, align 2
  %23 = sext i16 %22 to i32
  %24 = icmp sge i32 %23, 1
  br i1 %24, label %25, label %58

25:                                               ; preds = %5
  %26 = load i16, ptr %10, align 2
  %27 = sext i16 %26 to i32
  %28 = icmp sle i32 %27, 2
  br i1 %28, label %29, label %58

29:                                               ; preds = %25
  %30 = load ptr, ptr %13, align 8
  %31 = load i32, ptr @hf_kafka_topic_name, align 4
  %32 = load ptr, ptr %6, align 8
  %33 = load ptr, ptr %7, align 8
  %34 = load i32, ptr %9, align 4
  %35 = load i16, ptr %10, align 2
  %36 = sext i16 %35 to i32
  %37 = icmp sge i32 %36, 2
  %38 = zext i1 %37 to i32
  %39 = call i32 @dissect_kafka_string(ptr noundef %30, i32 noundef %31, ptr noundef %32, ptr noundef %33, i32 noundef %34, i32 noundef %38, ptr noundef %15, ptr noundef %16)
  store i32 %39, ptr %9, align 4
  %40 = load ptr, ptr %13, align 8
  %41 = load ptr, ptr %6, align 8
  %42 = load i32, ptr %9, align 4
  %43 = load i32, ptr @ett_kafka_partitions, align 4
  %44 = call ptr @proto_tree_add_subtree(ptr noundef %40, ptr noundef %41, i32 noundef %42, i32 noundef -1, i32 noundef %43, ptr noundef %12, ptr noundef @.str.671)
  store ptr %44, ptr %14, align 8
  %45 = load ptr, ptr %14, align 8
  %46 = load ptr, ptr %6, align 8
  %47 = load ptr, ptr %7, align 8
  %48 = load i32, ptr %9, align 4
  %49 = load i16, ptr %10, align 2
  %50 = sext i16 %49 to i32
  %51 = icmp sge i32 %50, 2
  %52 = zext i1 %51 to i32
  %53 = load i16, ptr %10, align 2
  %54 = call i32 @dissect_kafka_array(ptr noundef %45, ptr noundef %46, ptr noundef %47, i32 noundef %48, i32 noundef %52, i16 noundef signext %53, ptr noundef @dissect_kafka_partition_id, ptr noundef null)
  store i32 %54, ptr %9, align 4
  %55 = load ptr, ptr %12, align 8
  %56 = load ptr, ptr %6, align 8
  %57 = load i32, ptr %9, align 4
  call void @proto_item_set_end(ptr noundef %55, ptr noundef %56, i32 noundef %57)
  br label %58

58:                                               ; preds = %29, %25, %5
  %59 = load i16, ptr %10, align 2
  %60 = sext i16 %59 to i32
  %61 = icmp sge i32 %60, 2
  br i1 %61, label %62, label %68

62:                                               ; preds = %58
  %63 = load ptr, ptr %6, align 8
  %64 = load ptr, ptr %7, align 8
  %65 = load ptr, ptr %13, align 8
  %66 = load i32, ptr %9, align 4
  %67 = call i32 @dissect_kafka_tagged_fields(ptr noundef %63, ptr noundef %64, ptr noundef %65, i32 noundef %66, i16 noundef signext 0)
  store i32 %67, ptr %9, align 4
  br label %68

68:                                               ; preds = %62, %58
  %69 = load ptr, ptr %11, align 8
  %70 = load ptr, ptr %6, align 8
  %71 = load i32, ptr %9, align 4
  call void @proto_item_set_end(ptr noundef %69, ptr noundef %70, i32 noundef %71)
  %72 = load i16, ptr %10, align 2
  %73 = sext i16 %72 to i32
  %74 = icmp sge i32 %73, 1
  br i1 %74, label %75, label %88

75:                                               ; preds = %68
  %76 = load i16, ptr %10, align 2
  %77 = sext i16 %76 to i32
  %78 = icmp sle i32 %77, 2
  br i1 %78, label %79, label %88

79:                                               ; preds = %75
  %80 = load ptr, ptr %11, align 8
  %81 = load ptr, ptr %7, align 8
  %82 = getelementptr inbounds nuw %struct._packet_info, ptr %81, i32 0, i32 51
  %83 = load ptr, ptr %82, align 8
  %84 = load ptr, ptr %6, align 8
  %85 = load i32, ptr %15, align 4
  %86 = load i32, ptr %16, align 4
  %87 = call ptr @tvb_get_string_enc(ptr noundef %83, ptr noundef %84, i32 noundef %85, i32 noundef %86, i32 noundef 2)
  call void (ptr, ptr, ...) @proto_item_append_text(ptr noundef %80, ptr noundef @.str.687, ptr noundef %87)
  br label %88

88:                                               ; preds = %79, %75, %68
  %89 = load i32, ptr %9, align 4
  call void @llvm.lifetime.end.p0(i64 4, ptr %16) #12
  call void @llvm.lifetime.end.p0(i64 4, ptr %15) #12
  call void @llvm.lifetime.end.p0(i64 8, ptr %14) #12
  call void @llvm.lifetime.end.p0(i64 8, ptr %13) #12
  call void @llvm.lifetime.end.p0(i64 8, ptr %12) #12
  call void @llvm.lifetime.end.p0(i64 8, ptr %11) #12
  ret i32 %89
}