; Function Attrs: null_pointer_is_valid sspstrong uwtable
define internal noundef i32 @dissect_kafka_stop_replica_request_topic(ptr noundef %0, ptr noundef %1, ptr noundef %2, i32 noundef %3, i16 noundef signext %4) #0 {
  %6 = alloca ptr, align 8
  %7 = alloca ptr, align 8
  %8 = alloca i32, align 4
  %9 = alloca i32, align 4
  call void @llvm.lifetime.start.p0(i64 8, ptr nonnull %6) #9
  call void @llvm.lifetime.start.p0(i64 8, ptr nonnull %7) #9
  call void @llvm.lifetime.start.p0(i64 4, ptr nonnull %8) #9
  call void @llvm.lifetime.start.p0(i64 4, ptr nonnull %9) #9
  %10 = load i32, ptr @ett_kafka_topic, align 4
  %11 = call ptr @proto_tree_add_subtree(ptr noundef %2, ptr noundef %0, i32 noundef %3, i32 noundef -1, i32 noundef %10, ptr noundef nonnull %6, ptr noundef nonnull @.str.558)
  %12 = add i16 %4, -1
  %or.cond = icmp ult i16 %12, 2
  br i1 %or.cond, label %13, label %22

13:                                               ; preds = %5
  %14 = load i32, ptr @hf_kafka_topic_name, align 4
  %15 = icmp samesign ugt i16 %4, 1
  %16 = zext i1 %15 to i32
  %17 = call fastcc i32 @dissect_kafka_string(ptr noundef %11, i32 noundef %14, ptr noundef %0, ptr noundef %1, i32 noundef %3, i32 noundef %16, ptr noundef nonnull %8, ptr noundef nonnull %9)
  %18 = load i32, ptr @ett_kafka_partitions, align 4
  %19 = call ptr @proto_tree_add_subtree(ptr noundef %11, ptr noundef %0, i32 noundef %17, i32 noundef -1, i32 noundef %18, ptr noundef nonnull %7, ptr noundef nonnull @.str.671)
  %20 = call fastcc i32 @dissect_kafka_array(ptr noundef %19, ptr noundef %0, ptr noundef %1, i32 noundef %17, i32 noundef %16, i16 noundef signext %4, ptr noundef nonnull @dissect_kafka_partition_id, ptr noundef null)
  %21 = load ptr, ptr %7, align 8
  call void @proto_item_set_end(ptr noundef %21, ptr noundef %0, i32 noundef %20)
  br label %22

22:                                               ; preds = %13, %5
  %.0 = phi i32 [ %20, %13 ], [ %3, %5 ]
  %23 = icmp sgt i16 %4, 1
  br i1 %23, label %24, label %26

24:                                               ; preds = %22
  %25 = call fastcc i32 @dissect_kafka_tagged_fields(ptr noundef %0, ptr noundef %1, ptr noundef %11, i32 noundef %.0)
  br label %26

26:                                               ; preds = %24, %22
  %.1 = phi i32 [ %25, %24 ], [ %.0, %22 ]
  %27 = load ptr, ptr %6, align 8
  call void @proto_item_set_end(ptr noundef %27, ptr noundef %0, i32 noundef %.1)
  br i1 %or.cond, label %28, label %35

28:                                               ; preds = %26
  %29 = load ptr, ptr %6, align 8
  %30 = getelementptr inbounds nuw i8, ptr %1, i64 408
  %31 = load ptr, ptr %30, align 8
  %32 = load i32, ptr %8, align 4
  %33 = load i32, ptr %9, align 4
  %34 = call ptr @tvb_get_string_enc(ptr noundef %31, ptr noundef %0, i32 noundef %32, i32 noundef %33, i32 noundef 2)
  call void (ptr, ptr, ...) @proto_item_append_text(ptr noundef %29, ptr noundef nonnull @.str.687, ptr noundef %34)
  br label %35

35:                                               ; preds = %28, %26
  call void @llvm.lifetime.end.p0(i64 4, ptr nonnull %9) #9
  call void @llvm.lifetime.end.p0(i64 4, ptr nonnull %8) #9
  call void @llvm.lifetime.end.p0(i64 8, ptr nonnull %7) #9
  call void @llvm.lifetime.end.p0(i64 8, ptr nonnull %6) #9
  ret i32 %.1
}